target datalayout = "e-m:e-p270:32:32-p271:32:32-p272:64:64-i64:64-i128:128-f80:128-n8:16:32:64-S128"
target triple = "x86_64-pc-linux-gnu"

%"class.std::__exception_ptr::exception_ptr" = type { ptr }
%"class.std::__cxx11::basic_string" = type { %"struct.std::__cxx11::basic_string<char>::_Alloc_hider", i64, %union.anon }
%"struct.std::__cxx11::basic_string<char>::_Alloc_hider" = type { ptr }
%union.anon = type { i64, [8 x i8] }
%"class.std::runtime_error" = type { %"class.std::exception", %"struct.std::__cow_string" }
%"class.std::exception" = type { ptr }
%"struct.std::__cow_string" = type { %union.anon.8 }
%union.anon.8 = type { ptr }
%"class.faiss::FaissException" = type { %"class.std::exception", %"class.std::__cxx11::basic_string" }

@_ZTIN5faiss14FaissExceptionE = external constant ptr
@_ZTISt9exception = external constant ptr
@.str = private unnamed_addr constant [14 x i8] c"Unknown error\00", align 1
@faiss_last_exception = external thread_local global %"class.std::__exception_ptr::exception_ptr", align 8
@_ZTVSt9exception = available_externally unnamed_addr constant { [5 x ptr] } { [5 x ptr] [ptr null, ptr @_ZTISt9exception, ptr @_ZNSt9exceptionD1Ev, ptr @_ZNSt9exceptionD0Ev, ptr @_ZNKSt9exception4whatEv] }, align 8

; Function Attrs: inlinehint mustprogress nounwind uwtable
define linkonce_odr void @_ZNSt15__exception_ptr13exception_ptr4swapERS0_(ptr noundef nonnull align 8 dereferenceable(8) %0, ptr noundef nonnull align 8 dereferenceable(8) %1) #11 comdat align 2 {
  %3 = alloca ptr, align 8
  %4 = alloca ptr, align 8
  %5 = alloca ptr, align 8
  store ptr %0, ptr %3, align 8, !tbaa !36
  store ptr %1, ptr %4, align 8, !tbaa !36
  %6 = load ptr, ptr %3, align 8
  call void @llvm.lifetime.start.p0(i64 8, ptr %5) #3
  %7 = getelementptr inbounds nuw %"class.std::__exception_ptr::exception_ptr", ptr %6, i32 0, i32 0
  %8 = load ptr, ptr %7, align 8, !tbaa !38
  store ptr %8, ptr %5, align 8, !tbaa !35
  %9 = load ptr, ptr %4, align 8, !tbaa !36
  %10 = getelementptr inbounds nuw %"class.std::__exception_ptr::exception_ptr", ptr %9, i32 0, i32 0
  %11 = load ptr, ptr %10, align 8, !tbaa !38
  %12 = getelementptr inbounds nuw %"class.std::__exception_ptr::exception_ptr", ptr %6, i32 0, i32 0
  store ptr %11, ptr %12, align 8, !tbaa !38
  %13 = load ptr, ptr %5, align 8, !tbaa !35
  %14 = load ptr, ptr %4, align 8, !tbaa !36
  %15 = getelementptr inbounds nuw %"class.std::__exception_ptr::exception_ptr", ptr %14, i32 0, i32 0
  store ptr %13, ptr %15, align 8, !tbaa !38
  call void @llvm.lifetime.end.p0(i64 8, ptr %5) #3
  ret void
}

; Function Attrs: mustprogress nounwind uwtable
define linkonce_odr void @_ZNSt15__exception_ptr13exception_ptrC2EOS0_(ptr noundef nonnull align 8 dereferenceable(8) %0, ptr noundef nonnull align 8 dereferenceable(8) %1) unnamed_addr #4 comdat align 2 {
  %3 = alloca ptr, align 8
  %4 = alloca ptr, align 8
  store ptr %0, ptr %3, align 8, !tbaa !36
  store ptr %1, ptr %4, align 8, !tbaa !36
  %5 = load ptr, ptr %3, align 8
  %6 = getelementptr inbounds nuw %"class.std::__exception_ptr::exception_ptr", ptr %5, i32 0, i32 0
  %7 = load ptr, ptr %4, align 8, !tbaa !36
  %8 = getelementptr inbounds nuw %"class.std::__exception_ptr::exception_ptr", ptr %7, i32 0, i32 0
  %9 = load ptr, ptr %8, align 8, !tbaa !38
  store ptr %9, ptr %6, align 8, !tbaa !38
  %10 = load ptr, ptr %4, align 8, !tbaa !36
  %11 = getelementptr inbounds nuw %"class.std::__exception_ptr::exception_ptr", ptr %10, i32 0, i32 0
  store ptr null, ptr %11, align 8, !tbaa !38
  ret void
}

; Function Attrs: mustprogress nounwind uwtable
define linkonce_odr void @_ZNSt9exceptionC2ERKS_(ptr noundef nonnull align 8 dereferenceable(8) %0, ptr noundef nonnull align 8 dereferenceable(8) %1) unnamed_addr #4 comdat align 2 {
  %3 = alloca ptr, align 8
  %4 = alloca ptr, align 8
  store ptr %0, ptr %3, align 8, !tbaa !31
  store ptr %1, ptr %4, align 8, !tbaa !31
  %5 = load ptr, ptr %3, align 8
  store ptr getelementptr inbounds inrange(-16, 24) ({ [5 x ptr] }, ptr @_ZTVSt9exception, i32 0, i32 0, i32 2), ptr %5, align 8, !tbaa !40
  ret void
}

; Function Attrs: inlinehint mustprogress nounwind uwtable
define linkonce_odr void @_ZNSt15__exception_ptr13exception_ptrD2Ev(ptr noundef nonnull align 8 dereferenceable(8) %0) unnamed_addr #11 comdat align 2 {
  %2 = alloca ptr, align 8
  store ptr %0, ptr %2, align 8, !tbaa !36
  %3 = load ptr, ptr %2, align 8
  %4 = getelementptr inbounds nuw %"class.std::__exception_ptr::exception_ptr", ptr %3, i32 0, i32 0
  %5 = load ptr, ptr %4, align 8, !tbaa !38
  %6 = icmp ne ptr %5, null
  br i1 %6, label %7, label %8

7:                                                ; preds = %1
  call void @_ZNSt15__exception_ptr13exception_ptr10_M_releaseEv(ptr noundef nonnull align 8 dereferenceable(8) %3) #3
  br label %8

8:                                                ; preds = %7, %1
  ret void
}

; Function Attrs: mustprogress nounwind uwtable
define linkonce_odr noundef nonnull align 8 dereferenceable(8) ptr @_ZNSt15__exception_ptr13exception_ptraSEOS0_(ptr noundef nonnull align 8 dereferenceable(8) %0, ptr noundef nonnull align 8 dereferenceable(8) %1) #4 comdat align 2 {
  %3 = alloca ptr, align 8
  %4 = alloca ptr, align 8
  %5 = alloca %"class.std::__exception_ptr::exception_ptr", align 8
  store ptr %0, ptr %3, align 8, !tbaa !36
  store ptr %1, ptr %4, align 8, !tbaa !36
  %6 = load ptr, ptr %3, align 8
  call void @llvm.lifetime.start.p0(i64 8, ptr %5) #3
  %7 = load ptr, ptr %4, align 8, !tbaa !36
  call void @_ZNSt15__exception_ptr13exception_ptrC2EOS0_(ptr noundef nonnull align 8 dereferenceable(8) %5, ptr noundef nonnull align 8 dereferenceable(8) %7) #3
  call void @_ZNSt15__exception_ptr13exception_ptr4swapERS0_(ptr noundef nonnull align 8 dereferenceable(8) %5, ptr noundef nonnull align 8 dereferenceable(8) %6) #3
  call void @_ZNSt15__exception_ptr13exception_ptrD2Ev(ptr noundef nonnull align 8 dereferenceable(8) %5) #3
  call void @llvm.lifetime.end.p0(i64 8, ptr %5) #3
  ret ptr %6
}

; Function Attrs: uwtable
define linkonce_odr hidden noundef ptr @_ZTW20faiss_last_exception() #10 comdat {
  %1 = icmp ne ptr @_ZTH20faiss_last_exception, null
  br i1 %1, label %2, label %3

2:                                                ; preds = %0
  call void @_ZTH20faiss_last_exception()
  br label %3

3:                                                ; preds = %2, %0
  %4 = call align 8 ptr @llvm.threadlocal.address.p0(ptr align 8 @faiss_last_exception)
  ret ptr %4
}

; Function Attrs: mustprogress uwtable
define i32 @faiss_ParameterSpace_set_index_parameters_cno(ptr noundef %0, ptr noundef %1, i64 noundef %2) #6 personality ptr @__gxx_personality_v0 {
  %4 = alloca i32, align 4
  %5 = alloca ptr, align 8
  %6 = alloca ptr, align 8
  %7 = alloca i64, align 8
  %8 = alloca ptr, align 8
  %9 = alloca ptr, align 8
  %10 = alloca i32, align 4
  %11 = alloca %"class.std::__exception_ptr::exception_ptr", align 8
  %12 = alloca %"class.std::runtime_error", align 8
  %13 = alloca ptr, align 8
  %14 = alloca %"class.std::__exception_ptr::exception_ptr", align 8
  %15 = alloca %"class.std::exception", align 8
  %16 = alloca ptr, align 8
  %17 = alloca %"class.std::__exception_ptr::exception_ptr", align 8
  %18 = alloca %"class.faiss::FaissException", align 8
  store ptr %0, ptr %5, align 8, !tbaa !27
  store ptr %1, ptr %6, align 8, !tbaa !44
  store i64 %2, ptr %7, align 8, !tbaa !18
  call void @llvm.lifetime.start.p0(i64 8, ptr %8) #3
  %19 = load ptr, ptr %6, align 8, !tbaa !44
  store ptr %19, ptr %8, align 8, !tbaa !46
  %20 = load ptr, ptr %5, align 8, !tbaa !27
  %21 = load ptr, ptr %8, align 8, !tbaa !46
  %22 = load i64, ptr %7, align 8, !tbaa !18
  invoke void @_ZNK5faiss14ParameterSpace20set_index_parametersEPNS_5IndexEm(ptr noundef nonnull align 8 dereferenceable(64) %20, ptr noundef %21, i64 noundef %22)
          to label %23 unwind label %24

23:                                               ; preds = %3
  call void @llvm.lifetime.end.p0(i64 8, ptr %8) #3
  br label %64

24:                                               ; preds = %3
  %25 = landingpad { ptr, i32 }
          catch ptr @_ZTIN5faiss14FaissExceptionE
          catch ptr @_ZTISt9exception
          catch ptr null
  %26 = extractvalue { ptr, i32 } %25, 0
  store ptr %26, ptr %9, align 8
  %27 = extractvalue { ptr, i32 } %25, 1
  store i32 %27, ptr %10, align 4
  call void @llvm.lifetime.end.p0(i64 8, ptr %8) #3
  br label %28

28:                                               ; preds = %24
  %29 = load i32, ptr %10, align 4
  %30 = call i32 @llvm.eh.typeid.for.p0(ptr @_ZTIN5faiss14FaissExceptionE) #3
  %31 = icmp eq i32 %29, %30
  br i1 %31, label %32, label %39

32:                                               ; preds = %28
  call void @llvm.lifetime.start.p0(i64 8, ptr %16) #3
  %33 = load ptr, ptr %9, align 8
  %34 = call ptr @__cxa_begin_catch(ptr %33) #3
  store ptr %34, ptr %16, align 8
  call void @llvm.lifetime.start.p0(i64 8, ptr %17) #3
  %35 = load ptr, ptr %16, align 8, !tbaa !29
  invoke void @_ZN5faiss14FaissExceptionC2ERKS0_(ptr noundef nonnull align 8 dereferenceable(40) %18, ptr noundef nonnull align 8 dereferenceable(40) %35)
          to label %36 unwind label %59

36:                                               ; preds = %32
  call void @_ZSt18make_exception_ptrIN5faiss14FaissExceptionEENSt15__exception_ptr13exception_ptrET_(ptr dead_on_unwind writable sret(%"class.std::__exception_ptr::exception_ptr") align 8 %17, ptr noundef %18) #3
  %37 = call ptr @_ZTW20faiss_last_exception()
  %38 = call noundef nonnull align 8 dereferenceable(8) ptr @_ZNSt15__exception_ptr13exception_ptraSEOS0_(ptr noundef nonnull align 8 dereferenceable(8) %37, ptr noundef nonnull align 8 dereferenceable(8) %17) #3
  call void @_ZNSt15__exception_ptr13exception_ptrD2Ev(ptr noundef nonnull align 8 dereferenceable(8) %17) #3
  call void @_ZN5faiss14FaissExceptionD2Ev(ptr noundef nonnull align 8 dereferenceable(40) %18) #3
  call void @llvm.lifetime.end.p0(i64 8, ptr %17) #3
  store i32 -2, ptr %4, align 4
  call void @__cxa_end_catch()
  call void @llvm.lifetime.end.p0(i64 8, ptr %16) #3
  br label %65

39:                                               ; preds = %28
  %40 = call i32 @llvm.eh.typeid.for.p0(ptr @_ZTISt9exception) #3
  %41 = icmp eq i32 %29, %40
  br i1 %41, label %42, label %48

42:                                               ; preds = %39
  call void @llvm.lifetime.start.p0(i64 8, ptr %13) #3
  %43 = load ptr, ptr %9, align 8
  %44 = call ptr @__cxa_begin_catch(ptr %43) #3
  store ptr %44, ptr %13, align 8
  call void @llvm.lifetime.start.p0(i64 8, ptr %14) #3
  %45 = load ptr, ptr %13, align 8, !tbaa !31
  call void @_ZNSt9exceptionC2ERKS_(ptr noundef nonnull align 8 dereferenceable(8) %15, ptr noundef nonnull align 8 dereferenceable(8) %45) #3
  call void @_ZSt18make_exception_ptrISt9exceptionENSt15__exception_ptr13exception_ptrET_(ptr dead_on_unwind writable sret(%"class.std::__exception_ptr::exception_ptr") align 8 %14, ptr noundef %15) #3
  %46 = call ptr @_ZTW20faiss_last_exception()
  %47 = call noundef nonnull align 8 dereferenceable(8) ptr @_ZNSt15__exception_ptr13exception_ptraSEOS0_(ptr noundef nonnull align 8 dereferenceable(8) %46, ptr noundef nonnull align 8 dereferenceable(8) %14) #3
  call void @_ZNSt15__exception_ptr13exception_ptrD2Ev(ptr noundef nonnull align 8 dereferenceable(8) %14) #3
  call void @_ZNSt9exceptionD1Ev(ptr noundef nonnull align 8 dereferenceable(8) %15) #3
  call void @llvm.lifetime.end.p0(i64 8, ptr %14) #3
  store i32 -4, ptr %4, align 4
  call void @__cxa_end_catch()
  call void @llvm.lifetime.end.p0(i64 8, ptr %13) #3
  br label %65

48:                                               ; preds = %39
  %49 = load ptr, ptr %9, align 8
  %50 = call ptr @__cxa_begin_catch(ptr %49) #3
  call void @llvm.lifetime.start.p0(i64 8, ptr %11) #3
  invoke void @_ZNSt13runtime_errorC1EPKc(ptr noundef nonnull align 8 dereferenceable(16) %12, ptr noundef @.str)
          to label %51 unwind label %54

51:                                               ; preds = %48
  call void @_ZSt18make_exception_ptrISt13runtime_errorENSt15__exception_ptr13exception_ptrET_(ptr dead_on_unwind writable sret(%"class.std::__exception_ptr::exception_ptr") align 8 %11, ptr noundef %12) #3
  %52 = call ptr @_ZTW20faiss_last_exception()
  %53 = call noundef nonnull align 8 dereferenceable(8) ptr @_ZNSt15__exception_ptr13exception_ptraSEOS0_(ptr noundef nonnull align 8 dereferenceable(8) %52, ptr noundef nonnull align 8 dereferenceable(8) %11) #3
  call void @_ZNSt15__exception_ptr13exception_ptrD2Ev(ptr noundef nonnull align 8 dereferenceable(8) %11) #3
  call void @_ZNSt13runtime_errorD1Ev(ptr noundef nonnull align 8 dereferenceable(16) %12) #3
  call void @llvm.lifetime.end.p0(i64 8, ptr %11) #3
  store i32 -1, ptr %4, align 4
  call void @__cxa_end_catch()
  br label %65

54:                                               ; preds = %48
  %55 = landingpad { ptr, i32 }
          cleanup
  %56 = extractvalue { ptr, i32 } %55, 0
  store ptr %56, ptr %9, align 8
  %57 = extractvalue { ptr, i32 } %55, 1
  store i32 %57, ptr %10, align 4
  call void @llvm.lifetime.end.p0(i64 8, ptr %11) #3
  invoke void @__cxa_end_catch()
          to label %58 unwind label %72

58:                                               ; preds = %54
  br label %67

59:                                               ; preds = %32
  %60 = landingpad { ptr, i32 }
          cleanup
  %61 = extractvalue { ptr, i32 } %60, 0
  store ptr %61, ptr %9, align 8
  %62 = extractvalue { ptr, i32 } %60, 1
  store i32 %62, ptr %10, align 4
  call void @llvm.lifetime.end.p0(i64 8, ptr %17) #3
  invoke void @__cxa_end_catch()
          to label %63 unwind label %72

63:                                               ; preds = %59
  call void @llvm.lifetime.end.p0(i64 8, ptr %16) #3
  br label %67

64:                                               ; preds = %23
  store i32 0, ptr %4, align 4
  br label %65

65:                                               ; preds = %64, %36, %42, %51
  %66 = load i32, ptr %4, align 4
  ret i32 %66

67:                                               ; preds = %63, %58
  %68 = load ptr, ptr %9, align 8
  %69 = load i32, ptr %10, align 4
  %70 = insertvalue { ptr, i32 } poison, ptr %68, 0
  %71 = insertvalue { ptr, i32 } %70, i32 %69, 1
  resume { ptr, i32 } %71

72:                                               ; preds = %59, %54
  %73 = landingpad { ptr, i32 }
          catch ptr null
  %74 = extractvalue { ptr, i32 } %73, 0
  call void @__clang_call_terminate(ptr %74) #20
  unreachable
}